target datalayout = "e-m:e-p270:32:32-p271:32:32-p272:64:64-i64:64-i128:128-f80:128-n8:16:32:64-S128"
target triple = "x86_64-pc-linux-gnu"

%struct.jit_State = type { %struct.GCtrace, ptr, ptr, ptr, ptr, ptr, ptr, i32, i32, i32, i8, i8, %struct.IRType1, i8, %struct.FoldState, ptr, i32, i32, i32, i32, i32, i32, i32, [1 x i32], [5 x %union.TValue], [3 x %union.TValue], ptr, i32, i32, i32, i32, ptr, ptr, i32, i32, i8, ptr, i32, i32, i16, [101 x i16], [258 x i32], [15 x i32], [16 x ptr], [64 x %struct.HotPenalty], i32, [16 x %struct.BPropEntry], i32, %struct.ScEvEntry, ptr, i32, i32, i32, ptr, i32, i32, ptr, ptr, ptr, i64, i64, %union.TValue, ptr, i32, i32 }
%struct.GCtrace = type { %struct.GCRef, i8, i8, i16, i32, i32, %struct.GCRef, ptr, i32, i32, ptr, ptr, %struct.GCRef, %struct.MRef, i32, i32, ptr, i32, i16, i16, i16, i16, i16, i16, i16, i8, i8, i8, i8 }
%struct.GCRef = type { i64 }
%struct.MRef = type { i64 }
%struct.IRType1 = type { i8 }
%struct.FoldState = type { %union.IRIns, [2 x %union.IRIns], [2 x %union.IRIns] }
%union.IRIns = type { %struct.GCRef }
%struct.HotPenalty = type { %struct.MRef, i16, i16 }
%struct.BPropEntry = type { i16, i16, i32 }
%struct.ScEvEntry = type { %struct.MRef, i16, i16, i16, i16, %struct.IRType1, i8 }
%union.TValue = type { i64 }
%struct.anon.0 = type { i32, %struct.IRType1, i8, i8, i8 }

; Function Attrs: nounwind uwtable
define internal i32 @fold_kfold_intovarith(ptr noundef %0) #0 {
  %2 = alloca i32, align 4
  %3 = alloca ptr, align 8
  %4 = alloca double, align 8
  %5 = alloca i32, align 4
  %6 = alloca i32, align 4
  store ptr %0, ptr %3, align 8, !tbaa !4
  call void @llvm.lifetime.start.p0(i64 8, ptr %4) #8
  %7 = load ptr, ptr %3, align 8, !tbaa !4
  %8 = getelementptr inbounds nuw %struct.jit_State, ptr %7, i32 0, i32 14
  %9 = getelementptr inbounds nuw %struct.FoldState, ptr %8, i32 0, i32 1
  %10 = getelementptr inbounds [2 x %union.IRIns], ptr %9, i64 0, i64 0
  %11 = load i32, ptr %10, align 8, !tbaa !29
  %12 = sitofp i32 %11 to double
  %13 = load ptr, ptr %3, align 8, !tbaa !4
  %14 = getelementptr inbounds nuw %struct.jit_State, ptr %13, i32 0, i32 14
  %15 = getelementptr inbounds nuw %struct.FoldState, ptr %14, i32 0, i32 2
  %16 = getelementptr inbounds [2 x %union.IRIns], ptr %15, i64 0, i64 0
  %17 = load i32, ptr %16, align 8, !tbaa !29
  %18 = sitofp i32 %17 to double
  %19 = load ptr, ptr %3, align 8, !tbaa !4
  %20 = getelementptr inbounds nuw %struct.jit_State, ptr %19, i32 0, i32 14
  %21 = getelementptr inbounds nuw %struct.FoldState, ptr %20, i32 0, i32 0
  %22 = getelementptr inbounds nuw %struct.anon.0, ptr %21, i32 0, i32 2
  %23 = load i8, ptr %22, align 1, !tbaa !29
  %24 = zext i8 %23 to i32
  %25 = sub nsw i32 %24, 53
  %26 = call double @lj_vm_foldarith(double noundef %12, double noundef %18, i32 noundef %25)
  store double %26, ptr %4, align 8, !tbaa !45
  call void @llvm.lifetime.start.p0(i64 4, ptr %5) #8
  %27 = load double, ptr %4, align 8, !tbaa !45
  %28 = fptosi double %27 to i32
  store i32 %28, ptr %5, align 4, !tbaa !30
  %29 = load double, ptr %4, align 8, !tbaa !45
  %30 = load i32, ptr %5, align 4, !tbaa !30
  %31 = sitofp i32 %30 to double
  %32 = fcmp une double %29, %31
  br i1 %32, label %33, label %34

33:                                               ; preds = %1
  store i32 3, ptr %2, align 4
  store i32 1, ptr %6, align 4
  br label %39

34:                                               ; preds = %1
  %35 = load i32, ptr %5, align 4, !tbaa !30
  %36 = load ptr, ptr %3, align 8, !tbaa !4
  %37 = getelementptr inbounds nuw %struct.jit_State, ptr %36, i32 0, i32 14
  %38 = getelementptr inbounds nuw %struct.FoldState, ptr %37, i32 0, i32 0
  store i32 %35, ptr %38, align 8, !tbaa !29
  store i32 2, ptr %2, align 4
  store i32 1, ptr %6, align 4
  br label %39

39:                                               ; preds = %34, %33
  call void @llvm.lifetime.end.p0(i64 4, ptr %5) #8
  call void @llvm.lifetime.end.p0(i64 8, ptr %4) #8
  %40 = load i32, ptr %2, align 4
  ret i32 %40
}