; Function Attrs: nounwind uwtable
define internal range(i32 2, 4) i32 @fold_kfold_intovarith(ptr noundef captures(none) %0) #0 {
  %2 = getelementptr inbounds nuw i8, ptr %0, i64 192
  %3 = load i32, ptr %2, align 8, !tbaa !28
  %4 = sitofp i32 %3 to double
  %5 = getelementptr inbounds nuw i8, ptr %0, i64 208
  %6 = load i32, ptr %5, align 8, !tbaa !28
  %7 = sitofp i32 %6 to double
  %8 = getelementptr inbounds nuw i8, ptr %0, i64 189
  %9 = load i8, ptr %8, align 1, !tbaa !28
  %10 = zext i8 %9 to i32
  %11 = add nsw i32 %10, -53
  %12 = tail call double @lj_vm_foldarith(double noundef %4, double noundef %7, i32 noundef %11) #12
  %13 = fptosi double %12 to i32
  %14 = sitofp i32 %13 to double
  %15 = fcmp une double %12, %14
  br i1 %15, label %18, label %16

16:                                               ; preds = %1
  %17 = getelementptr inbounds nuw i8, ptr %0, i64 184
  store i32 %13, ptr %17, align 8, !tbaa !28
  br label %18

18:                                               ; preds = %1, %16
  %.0 = phi i32 [ 2, %16 ], [ 3, %1 ]
  ret i32 %.0
}